(lp0
(I1
F1.770958230958231e-10
tp1
a(I2
F8.854791154791155e-11
tp2
a(I4
F4.4273955773955774e-11
tp3
a(I8
F2.2136977886977887e-11
tp4
a(I16
F1.1068488943488944e-11
tp5
a(I32
F5.534244471744472e-12
tp6
a(I64
F2.767122235872236e-12
tp7
a(I128
F1.383561117936118e-12
tp8
a(I256
F6.91780558968059e-13
tp9
a.